target datalayout = "e-m:e-p270:32:32-p271:32:32-p272:64:64-i64:64-i128:128-f80:128-n8:16:32:64-S128"
target triple = "x86_64-pc-linux-gnu"

%struct.DSA_PKEY_CTX = type { i32, i32, ptr, [2 x i32], ptr }
%struct.evp_pkey_ctx_st = type { i32, ptr, ptr, ptr, ptr, %union.anon, %struct.anon.4, ptr, ptr, ptr, i32, i32, ptr, ptr, ptr, ptr, ptr, i8, ptr }
%union.anon = type { %struct.anon.0 }
%struct.anon.0 = type { ptr, ptr }
%struct.anon.4 = type { ptr, ptr, i64, i8 }
%struct.dsa_st = type { i32, i32, %struct.ffc_params_st, ptr, ptr, i32, ptr, %struct.CRYPTO_REF_COUNT, %struct.crypto_ex_data_st, ptr, ptr, ptr, ptr, i64 }
%struct.ffc_params_st = type { ptr, ptr, ptr, ptr, ptr, i64, i32, i32, i32, i32, i32, ptr, ptr, i32 }
%struct.CRYPTO_REF_COUNT = type { i32 }
%struct.crypto_ex_data_st = type { ptr, ptr }

; Function Attrs: nounwind uwtable
define internal i32 @pkey_dsa_paramgen(ptr noundef %0, ptr noundef %1) #0 {
  %3 = alloca i32, align 4
  %4 = alloca ptr, align 8
  %5 = alloca ptr, align 8
  %6 = alloca ptr, align 8
  %7 = alloca ptr, align 8
  %8 = alloca ptr, align 8
  %9 = alloca i32, align 4
  %10 = alloca i32, align 4
  %11 = alloca i32, align 4
  store ptr %0, ptr %4, align 8, !tbaa !3
  store ptr %1, ptr %5, align 8, !tbaa !30
  call void @llvm.lifetime.start.p0(i64 8, ptr %6) #6
  store ptr null, ptr %6, align 8, !tbaa !31
  call void @llvm.lifetime.start.p0(i64 8, ptr %7) #6
  %12 = load ptr, ptr %4, align 8, !tbaa !3
  %13 = getelementptr inbounds nuw %struct.evp_pkey_ctx_st, ptr %12, i32 0, i32 16
  %14 = load ptr, ptr %13, align 8, !tbaa !16
  store ptr %14, ptr %7, align 8, !tbaa !8
  call void @llvm.lifetime.start.p0(i64 8, ptr %8) #6
  call void @llvm.lifetime.start.p0(i64 4, ptr %9) #6
  call void @llvm.lifetime.start.p0(i64 4, ptr %10) #6
  %15 = load ptr, ptr %4, align 8, !tbaa !3
  %16 = getelementptr inbounds nuw %struct.evp_pkey_ctx_st, ptr %15, i32 0, i32 8
  %17 = load ptr, ptr %16, align 8, !tbaa !33
  %18 = icmp ne ptr %17, null
  br i1 %18, label %19, label %27

19:                                               ; preds = %2
  %20 = call ptr @BN_GENCB_new()
  store ptr %20, ptr %8, align 8, !tbaa !34
  %21 = load ptr, ptr %8, align 8, !tbaa !34
  %22 = icmp eq ptr %21, null
  br i1 %22, label %23, label %24

23:                                               ; preds = %19
  store i32 0, ptr %3, align 4
  store i32 1, ptr %11, align 4
  br label %70

24:                                               ; preds = %19
  %25 = load ptr, ptr %8, align 8, !tbaa !34
  %26 = load ptr, ptr %4, align 8, !tbaa !3
  call void @evp_pkey_set_cb_translate(ptr noundef %25, ptr noundef %26)
  br label %28

27:                                               ; preds = %2
  store ptr null, ptr %8, align 8, !tbaa !34
  br label %28

28:                                               ; preds = %27, %24
  %29 = call ptr @DSA_new()
  store ptr %29, ptr %6, align 8, !tbaa !31
  %30 = load ptr, ptr %6, align 8, !tbaa !31
  %31 = icmp eq ptr %30, null
  br i1 %31, label %32, label %34

32:                                               ; preds = %28
  %33 = load ptr, ptr %8, align 8, !tbaa !34
  call void @BN_GENCB_free(ptr noundef %33)
  store i32 0, ptr %3, align 4
  store i32 1, ptr %11, align 4
  br label %70

34:                                               ; preds = %28
  %35 = load ptr, ptr %7, align 8, !tbaa !8
  %36 = getelementptr inbounds nuw %struct.DSA_PKEY_CTX, ptr %35, i32 0, i32 4
  %37 = load ptr, ptr %36, align 8, !tbaa !15
  %38 = icmp ne ptr %37, null
  br i1 %38, label %39, label %46

39:                                               ; preds = %34
  %40 = load ptr, ptr %6, align 8, !tbaa !31
  %41 = getelementptr inbounds nuw %struct.dsa_st, ptr %40, i32 0, i32 2
  %42 = load ptr, ptr %7, align 8, !tbaa !8
  %43 = getelementptr inbounds nuw %struct.DSA_PKEY_CTX, ptr %42, i32 0, i32 4
  %44 = load ptr, ptr %43, align 8, !tbaa !15
  %45 = call ptr @EVP_MD_get0_name(ptr noundef %44)
  call void @ossl_ffc_set_digest(ptr noundef %41, ptr noundef %45, ptr noundef null)
  br label %46

46:                                               ; preds = %39, %34
  %47 = load ptr, ptr %6, align 8, !tbaa !31
  %48 = getelementptr inbounds nuw %struct.dsa_st, ptr %47, i32 0, i32 2
  %49 = load ptr, ptr %7, align 8, !tbaa !8
  %50 = getelementptr inbounds nuw %struct.DSA_PKEY_CTX, ptr %49, i32 0, i32 0
  %51 = load i32, ptr %50, align 8, !tbaa !9
  %52 = sext i32 %51 to i64
  %53 = load ptr, ptr %7, align 8, !tbaa !8
  %54 = getelementptr inbounds nuw %struct.DSA_PKEY_CTX, ptr %53, i32 0, i32 1
  %55 = load i32, ptr %54, align 4, !tbaa !13
  %56 = sext i32 %55 to i64
  %57 = load ptr, ptr %8, align 8, !tbaa !34
  %58 = call i32 @ossl_ffc_params_FIPS186_4_generate(ptr noundef null, ptr noundef %48, i32 noundef 0, i64 noundef %52, i64 noundef %56, ptr noundef %10, ptr noundef %57)
  store i32 %58, ptr %9, align 4, !tbaa !36
  %59 = load ptr, ptr %8, align 8, !tbaa !34
  call void @BN_GENCB_free(ptr noundef %59)
  %60 = load i32, ptr %9, align 4, !tbaa !36
  %61 = icmp sgt i32 %60, 0
  br i1 %61, label %62, label %66

62:                                               ; preds = %46
  %63 = load ptr, ptr %5, align 8, !tbaa !30
  %64 = load ptr, ptr %6, align 8, !tbaa !31
  %65 = call i32 @EVP_PKEY_assign(ptr noundef %63, i32 noundef 116, ptr noundef %64)
  br label %68

66:                                               ; preds = %46
  %67 = load ptr, ptr %6, align 8, !tbaa !31
  call void @DSA_free(ptr noundef %67)
  br label %68

68:                                               ; preds = %66, %62
  %69 = load i32, ptr %9, align 4, !tbaa !36
  store i32 %69, ptr %3, align 4
  store i32 1, ptr %11, align 4
  br label %70

70:                                               ; preds = %68, %32, %23
  call void @llvm.lifetime.end.p0(i64 4, ptr %10) #6
  call void @llvm.lifetime.end.p0(i64 4, ptr %9) #6
  call void @llvm.lifetime.end.p0(i64 8, ptr %8) #6
  call void @llvm.lifetime.end.p0(i64 8, ptr %7) #6
  call void @llvm.lifetime.end.p0(i64 8, ptr %6) #6
  %71 = load i32, ptr %3, align 4
  ret i32 %71
}