; Function Attrs: nounwind uwtable
define internal i32 @pkey_dsa_paramgen(ptr noundef %0, ptr noundef %1) #1 {
  %3 = alloca i32, align 4
  %4 = getelementptr inbounds nuw i8, ptr %0, i64 152
  %5 = load ptr, ptr %4, align 8, !tbaa !13
  call void @llvm.lifetime.start.p0(i64 4, ptr nonnull %3) #7
  %6 = getelementptr inbounds nuw i8, ptr %0, i64 96
  %7 = load ptr, ptr %6, align 8, !tbaa !27
  %.not = icmp eq ptr %7, null
  br i1 %.not, label %12, label %8

8:                                                ; preds = %2
  %9 = tail call ptr @BN_GENCB_new() #7
  %10 = icmp eq ptr %9, null
  br i1 %10, label %34, label %11

11:                                               ; preds = %8
  tail call void @evp_pkey_set_cb_translate(ptr noundef nonnull %9, ptr noundef nonnull %0) #7
  br label %12

12:                                               ; preds = %2, %11
  %.020 = phi ptr [ %9, %11 ], [ null, %2 ]
  %13 = tail call ptr @DSA_new() #7
  %14 = icmp eq ptr %13, null
  br i1 %14, label %15, label %16

15:                                               ; preds = %12
  tail call void @BN_GENCB_free(ptr noundef %.020) #7
  br label %34

16:                                               ; preds = %12
  %17 = getelementptr inbounds nuw i8, ptr %5, i64 24
  %18 = load ptr, ptr %17, align 8, !tbaa !12
  %.not24 = icmp eq ptr %18, null
  br i1 %.not24, label %22, label %19

19:                                               ; preds = %16
  %20 = getelementptr inbounds nuw i8, ptr %13, i64 8
  %21 = tail call ptr @EVP_MD_get0_name(ptr noundef nonnull %18) #7
  tail call void @ossl_ffc_set_digest(ptr noundef nonnull %20, ptr noundef %21, ptr noundef null) #7
  br label %22

22:                                               ; preds = %19, %16
  %23 = getelementptr inbounds nuw i8, ptr %13, i64 8
  %24 = load i32, ptr %5, align 8, !tbaa !3
  %25 = sext i32 %24 to i64
  %26 = getelementptr inbounds nuw i8, ptr %5, i64 4
  %27 = load i32, ptr %26, align 4, !tbaa !10
  %28 = sext i32 %27 to i64
  %29 = call i32 @ossl_ffc_params_FIPS186_4_generate(ptr noundef null, ptr noundef nonnull %23, i32 noundef 0, i64 noundef %25, i64 noundef %28, ptr noundef nonnull %3, ptr noundef %.020) #7
  call void @BN_GENCB_free(ptr noundef %.020) #7
  %30 = icmp sgt i32 %29, 0
  br i1 %30, label %31, label %33

31:                                               ; preds = %22
  %32 = call i32 @EVP_PKEY_assign(ptr noundef %1, i32 noundef 116, ptr noundef nonnull %13) #7
  br label %34

33:                                               ; preds = %22
  call void @DSA_free(ptr noundef nonnull %13) #7
  br label %34

34:                                               ; preds = %31, %33, %8, %15
  %.0 = phi i32 [ 0, %15 ], [ 0, %8 ], [ %29, %33 ], [ %29, %31 ]
  call void @llvm.lifetime.end.p0(i64 4, ptr nonnull %3) #7
  ret i32 %.0
}